target datalayout = "e-m:e-p270:32:32-p271:32:32-p272:64:64-i64:64-i128:128-f80:128-n8:16:32:64-S128"
target triple = "x86_64-pc-linux-gnu"

%"class.icu_77::StringEnumeration" = type <{ %"class.icu_77::UObject", %"class.icu_77::UnicodeString", [32 x i8], ptr, i32, [4 x i8] }>
%"class.icu_77::UObject" = type { ptr }
%"class.icu_77::UnicodeString" = type { %"class.icu_77::Replaceable", %"union.icu_77::UnicodeString::StackBufferOrFields" }
%"class.icu_77::Replaceable" = type { %"class.icu_77::UObject" }
%"union.icu_77::UnicodeString::StackBufferOrFields" = type { %struct.anon.0, [32 x i8] }
%struct.anon.0 = type { i16, i32, i32, ptr }

; Function Attrs: inlinehint mustprogress nounwind uwtable
define internal noundef signext i8 @_ZL9U_SUCCESS10UErrorCode(i32 noundef %0) #1 {
  %2 = alloca i32, align 4
  store i32 %0, ptr %2, align 4, !tbaa !26
  %3 = load i32, ptr %2, align 4, !tbaa !26
  %4 = icmp sle i32 %3, 0
  %5 = zext i1 %4 to i8
  ret i8 %5
}

; Function Attrs: mustprogress uwtable
define noundef ptr @_ZN6icu_7717StringEnumeration8setCharsEPKciR10UErrorCode(ptr noundef nonnull align 8 dereferenceable(116) %0, ptr noundef %1, i32 noundef %2, ptr noundef nonnull align 4 dereferenceable(4) %3) #0 align 2 {
  %5 = alloca ptr, align 8
  %6 = alloca ptr, align 8
  %7 = alloca ptr, align 8
  %8 = alloca i32, align 4
  %9 = alloca ptr, align 8
  %10 = alloca ptr, align 8
  %11 = alloca i32, align 4
  store ptr %0, ptr %6, align 8, !tbaa !3
  store ptr %1, ptr %7, align 8, !tbaa !29
  store i32 %2, ptr %8, align 4, !tbaa !28
  store ptr %3, ptr %9, align 8, !tbaa !25
  %12 = load ptr, ptr %6, align 8
  %13 = load ptr, ptr %9, align 8, !tbaa !25
  %14 = load i32, ptr %13, align 4, !tbaa !26
  %15 = call noundef signext i8 @_ZL9U_SUCCESS10UErrorCode(i32 noundef %14)
  %16 = icmp ne i8 %15, 0
  br i1 %16, label %17, label %51

17:                                               ; preds = %4
  %18 = load ptr, ptr %7, align 8, !tbaa !29
  %19 = icmp ne ptr %18, null
  br i1 %19, label %20, label %51

20:                                               ; preds = %17
  %21 = load i32, ptr %8, align 4, !tbaa !28
  %22 = icmp slt i32 %21, 0
  br i1 %22, label %23, label %27

23:                                               ; preds = %20
  %24 = load ptr, ptr %7, align 8, !tbaa !29
  %25 = call i64 @strlen(ptr noundef %24) #15
  %26 = trunc i64 %25 to i32
  store i32 %26, ptr %8, align 4, !tbaa !28
  br label %27

27:                                               ; preds = %23, %20
  call void @llvm.lifetime.start.p0(i64 8, ptr %10) #12
  %28 = getelementptr inbounds nuw %"class.icu_77::StringEnumeration", ptr %12, i32 0, i32 1
  %29 = load i32, ptr %8, align 4, !tbaa !28
  %30 = add nsw i32 %29, 1
  %31 = call noundef ptr @_ZN6icu_7713UnicodeString9getBufferEi(ptr noundef nonnull align 8 dereferenceable(64) %28, i32 noundef %30)
  store ptr %31, ptr %10, align 8, !tbaa !30
  %32 = load ptr, ptr %10, align 8, !tbaa !30
  %33 = icmp ne ptr %32, null
  br i1 %33, label %34, label %45

34:                                               ; preds = %27
  %35 = load ptr, ptr %7, align 8, !tbaa !29
  %36 = load ptr, ptr %10, align 8, !tbaa !30
  %37 = load i32, ptr %8, align 4, !tbaa !28
  call void @u_charsToUChars_77(ptr noundef %35, ptr noundef %36, i32 noundef %37)
  %38 = load ptr, ptr %10, align 8, !tbaa !30
  %39 = load i32, ptr %8, align 4, !tbaa !28
  %40 = sext i32 %39 to i64
  %41 = getelementptr inbounds i16, ptr %38, i64 %40
  store i16 0, ptr %41, align 2, !tbaa !32
  %42 = getelementptr inbounds nuw %"class.icu_77::StringEnumeration", ptr %12, i32 0, i32 1
  %43 = load i32, ptr %8, align 4, !tbaa !28
  call void @_ZN6icu_7713UnicodeString13releaseBufferEi(ptr noundef nonnull align 8 dereferenceable(64) %42, i32 noundef %43)
  %44 = getelementptr inbounds nuw %"class.icu_77::StringEnumeration", ptr %12, i32 0, i32 1
  store ptr %44, ptr %5, align 8
  store i32 1, ptr %11, align 4
  br label %48

45:                                               ; preds = %27
  %46 = load ptr, ptr %9, align 8, !tbaa !25
  store i32 7, ptr %46, align 4, !tbaa !26
  br label %47

47:                                               ; preds = %45
  store i32 0, ptr %11, align 4
  br label %48

48:                                               ; preds = %47, %34
  call void @llvm.lifetime.end.p0(i64 8, ptr %10) #12
  %49 = load i32, ptr %11, align 4
  switch i32 %49, label %54 [
    i32 0, label %50
    i32 1, label %52
  ]

50:                                               ; preds = %48
  br label %51

51:                                               ; preds = %50, %17, %4
  store ptr null, ptr %5, align 8
  br label %52

52:                                               ; preds = %51, %48
  %53 = load ptr, ptr %5, align 8
  ret ptr %53

54:                                               ; preds = %48
  unreachable
}