; Function Attrs: mustprogress uwtable
define noundef ptr @_ZN6icu_7717StringEnumeration8setCharsEPKciR10UErrorCode(ptr noundef nonnull align 8 dereferenceable(116) %0, ptr noundef %1, i32 noundef %2, ptr noundef nonnull align 4 captures(none) dereferenceable(4) %3) local_unnamed_addr #9 align 2 {
  %5 = load i32, ptr %3, align 4, !tbaa !17
  %6 = icmp slt i32 %5, 1
  %7 = icmp ne ptr %1, null
  %or.cond = and i1 %7, %6
  br i1 %or.cond, label %8, label %20

8:                                                ; preds = %4
  %9 = icmp slt i32 %2, 0
  br i1 %9, label %10, label %13

10:                                               ; preds = %8
  %11 = tail call i64 @strlen(ptr noundef nonnull dereferenceable(1) %1) #21
  %12 = trunc i64 %11 to i32
  br label %13

13:                                               ; preds = %10, %8
  %.017 = phi i32 [ %12, %10 ], [ %2, %8 ]
  %14 = getelementptr inbounds nuw i8, ptr %0, i64 8
  %15 = add nsw i32 %.017, 1
  %16 = tail call noundef ptr @_ZN6icu_7713UnicodeString9getBufferEi(ptr noundef nonnull align 8 dereferenceable(64) %14, i32 noundef %15)
  %.not.not = icmp eq ptr %16, null
  br i1 %.not.not, label %.thread, label %17

.thread:                                          ; preds = %13
  store i32 7, ptr %3, align 4, !tbaa !17
  br label %20

17:                                               ; preds = %13
  tail call void @u_charsToUChars_77(ptr noundef nonnull %1, ptr noundef nonnull %16, i32 noundef %.017)
  %18 = sext i32 %.017 to i64
  %19 = getelementptr inbounds i16, ptr %16, i64 %18
  store i16 0, ptr %19, align 2, !tbaa !20
  tail call void @_ZN6icu_7713UnicodeString13releaseBufferEi(ptr noundef nonnull align 8 dereferenceable(64) %14, i32 noundef %.017)
  br label %20

20:                                               ; preds = %4, %.thread, %17
  %.1 = phi ptr [ %14, %17 ], [ null, %.thread ], [ null, %4 ]
  ret ptr %.1
}